target datalayout = "e-m:e-p270:32:32-p271:32:32-p272:64:64-i64:64-i128:128-f80:128-n8:16:32:64-S128"
target triple = "x86_64-pc-linux-gnu"

%struct.cgltf_extras = type { i64, i64, ptr }
%struct.cgltf_node = type { ptr, ptr, ptr, i64, ptr, ptr, ptr, ptr, ptr, i64, i32, i32, i32, i32, [3 x float], [4 x float], [3 x float], [16 x float], %struct.cgltf_extras, i32, %struct.cgltf_mesh_gpu_instancing, i64, ptr }
%struct.cgltf_mesh_gpu_instancing = type { ptr, i64 }

; Function Attrs: nounwind uwtable
define hidden void @cgltf_node_transform_local(ptr noundef %0, ptr noundef %1) #0 {
  %3 = alloca ptr, align 8
  %4 = alloca ptr, align 8
  %5 = alloca ptr, align 8
  %6 = alloca float, align 4
  %7 = alloca float, align 4
  %8 = alloca float, align 4
  %9 = alloca float, align 4
  %10 = alloca float, align 4
  %11 = alloca float, align 4
  %12 = alloca float, align 4
  %13 = alloca float, align 4
  %14 = alloca float, align 4
  %15 = alloca float, align 4
  store ptr %0, ptr %3, align 8
  store ptr %1, ptr %4, align 8
  call void @llvm.lifetime.start.p0(i64 8, ptr %5) #16
  %16 = load ptr, ptr %4, align 8
  store ptr %16, ptr %5, align 8
  %17 = load ptr, ptr %3, align 8
  %18 = getelementptr inbounds nuw %struct.cgltf_node, ptr %17, i32 0, i32 13
  %19 = load i32, ptr %18, align 4
  %20 = icmp ne i32 %19, 0
  br i1 %20, label %21, label %26

21:                                               ; preds = %2
  %22 = load ptr, ptr %5, align 8
  %23 = load ptr, ptr %3, align 8
  %24 = getelementptr inbounds nuw %struct.cgltf_node, ptr %23, i32 0, i32 17
  %25 = getelementptr inbounds [16 x float], ptr %24, i64 0, i64 0
  call void @llvm.memcpy.p0.p0.i64(ptr align 4 %22, ptr align 8 %25, i64 64, i1 false)
  br label %201

26:                                               ; preds = %2
  call void @llvm.lifetime.start.p0(i64 4, ptr %6) #16
  %27 = load ptr, ptr %3, align 8
  %28 = getelementptr inbounds nuw %struct.cgltf_node, ptr %27, i32 0, i32 14
  %29 = getelementptr inbounds [3 x float], ptr %28, i64 0, i64 0
  %30 = load float, ptr %29, align 8
  store float %30, ptr %6, align 4
  call void @llvm.lifetime.start.p0(i64 4, ptr %7) #16
  %31 = load ptr, ptr %3, align 8
  %32 = getelementptr inbounds nuw %struct.cgltf_node, ptr %31, i32 0, i32 14
  %33 = getelementptr inbounds [3 x float], ptr %32, i64 0, i64 1
  %34 = load float, ptr %33, align 4
  store float %34, ptr %7, align 4
  call void @llvm.lifetime.start.p0(i64 4, ptr %8) #16
  %35 = load ptr, ptr %3, align 8
  %36 = getelementptr inbounds nuw %struct.cgltf_node, ptr %35, i32 0, i32 14
  %37 = getelementptr inbounds [3 x float], ptr %36, i64 0, i64 2
  %38 = load float, ptr %37, align 8
  store float %38, ptr %8, align 4
  call void @llvm.lifetime.start.p0(i64 4, ptr %9) #16
  %39 = load ptr, ptr %3, align 8
  %40 = getelementptr inbounds nuw %struct.cgltf_node, ptr %39, i32 0, i32 15
  %41 = getelementptr inbounds [4 x float], ptr %40, i64 0, i64 0
  %42 = load float, ptr %41, align 4
  store float %42, ptr %9, align 4
  call void @llvm.lifetime.start.p0(i64 4, ptr %10) #16
  %43 = load ptr, ptr %3, align 8
  %44 = getelementptr inbounds nuw %struct.cgltf_node, ptr %43, i32 0, i32 15
  %45 = getelementptr inbounds [4 x float], ptr %44, i64 0, i64 1
  %46 = load float, ptr %45, align 4
  store float %46, ptr %10, align 4
  call void @llvm.lifetime.start.p0(i64 4, ptr %11) #16
  %47 = load ptr, ptr %3, align 8
  %48 = getelementptr inbounds nuw %struct.cgltf_node, ptr %47, i32 0, i32 15
  %49 = getelementptr inbounds [4 x float], ptr %48, i64 0, i64 2
  %50 = load float, ptr %49, align 4
  store float %50, ptr %11, align 4
  call void @llvm.lifetime.start.p0(i64 4, ptr %12) #16
  %51 = load ptr, ptr %3, align 8
  %52 = getelementptr inbounds nuw %struct.cgltf_node, ptr %51, i32 0, i32 15
  %53 = getelementptr inbounds [4 x float], ptr %52, i64 0, i64 3
  %54 = load float, ptr %53, align 4
  store float %54, ptr %12, align 4
  call void @llvm.lifetime.start.p0(i64 4, ptr %13) #16
  %55 = load ptr, ptr %3, align 8
  %56 = getelementptr inbounds nuw %struct.cgltf_node, ptr %55, i32 0, i32 16
  %57 = getelementptr inbounds [3 x float], ptr %56, i64 0, i64 0
  %58 = load float, ptr %57, align 4
  store float %58, ptr %13, align 4
  call void @llvm.lifetime.start.p0(i64 4, ptr %14) #16
  %59 = load ptr, ptr %3, align 8
  %60 = getelementptr inbounds nuw %struct.cgltf_node, ptr %59, i32 0, i32 16
  %61 = getelementptr inbounds [3 x float], ptr %60, i64 0, i64 1
  %62 = load float, ptr %61, align 4
  store float %62, ptr %14, align 4
  call void @llvm.lifetime.start.p0(i64 4, ptr %15) #16
  %63 = load ptr, ptr %3, align 8
  %64 = getelementptr inbounds nuw %struct.cgltf_node, ptr %63, i32 0, i32 16
  %65 = getelementptr inbounds [3 x float], ptr %64, i64 0, i64 2
  %66 = load float, ptr %65, align 4
  store float %66, ptr %15, align 4
  %67 = load float, ptr %10, align 4
  %68 = fmul float 2.000000e+00, %67
  %69 = load float, ptr %10, align 4
  %70 = fneg float %68
  %71 = call float @llvm.fmuladd.f32(float %70, float %69, float 1.000000e+00)
  %72 = load float, ptr %11, align 4
  %73 = fmul float 2.000000e+00, %72
  %74 = load float, ptr %11, align 4
  %75 = fneg float %73
  %76 = call float @llvm.fmuladd.f32(float %75, float %74, float %71)
  %77 = load float, ptr %13, align 4
  %78 = fmul float %76, %77
  %79 = load ptr, ptr %5, align 8
  %80 = getelementptr inbounds float, ptr %79, i64 0
  store float %78, ptr %80, align 4
  %81 = load float, ptr %9, align 4
  %82 = fmul float 2.000000e+00, %81
  %83 = load float, ptr %10, align 4
  %84 = load float, ptr %11, align 4
  %85 = fmul float 2.000000e+00, %84
  %86 = load float, ptr %12, align 4
  %87 = fmul float %85, %86
  %88 = call float @llvm.fmuladd.f32(float %82, float %83, float %87)
  %89 = load float, ptr %13, align 4
  %90 = fmul float %88, %89
  %91 = load ptr, ptr %5, align 8
  %92 = getelementptr inbounds float, ptr %91, i64 1
  store float %90, ptr %92, align 4
  %93 = load float, ptr %9, align 4
  %94 = fmul float 2.000000e+00, %93
  %95 = load float, ptr %11, align 4
  %96 = load float, ptr %10, align 4
  %97 = fmul float 2.000000e+00, %96
  %98 = load float, ptr %12, align 4
  %99 = fmul float %97, %98
  %100 = fneg float %99
  %101 = call float @llvm.fmuladd.f32(float %94, float %95, float %100)
  %102 = load float, ptr %13, align 4
  %103 = fmul float %101, %102
  %104 = load ptr, ptr %5, align 8
  %105 = getelementptr inbounds float, ptr %104, i64 2
  store float %103, ptr %105, align 4
  %106 = load ptr, ptr %5, align 8
  %107 = getelementptr inbounds float, ptr %106, i64 3
  store float 0.000000e+00, ptr %107, align 4
  %108 = load float, ptr %9, align 4
  %109 = fmul float 2.000000e+00, %108
  %110 = load float, ptr %10, align 4
  %111 = load float, ptr %11, align 4
  %112 = fmul float 2.000000e+00, %111
  %113 = load float, ptr %12, align 4
  %114 = fmul float %112, %113
  %115 = fneg float %114
  %116 = call float @llvm.fmuladd.f32(float %109, float %110, float %115)
  %117 = load float, ptr %14, align 4
  %118 = fmul float %116, %117
  %119 = load ptr, ptr %5, align 8
  %120 = getelementptr inbounds float, ptr %119, i64 4
  store float %118, ptr %120, align 4
  %121 = load float, ptr %9, align 4
  %122 = fmul float 2.000000e+00, %121
  %123 = load float, ptr %9, align 4
  %124 = fneg float %122
  %125 = call float @llvm.fmuladd.f32(float %124, float %123, float 1.000000e+00)
  %126 = load float, ptr %11, align 4
  %127 = fmul float 2.000000e+00, %126
  %128 = load float, ptr %11, align 4
  %129 = fneg float %127
  %130 = call float @llvm.fmuladd.f32(float %129, float %128, float %125)
  %131 = load float, ptr %14, align 4
  %132 = fmul float %130, %131
  %133 = load ptr, ptr %5, align 8
  %134 = getelementptr inbounds float, ptr %133, i64 5
  store float %132, ptr %134, align 4
  %135 = load float, ptr %10, align 4
  %136 = fmul float 2.000000e+00, %135
  %137 = load float, ptr %11, align 4
  %138 = load float, ptr %9, align 4
  %139 = fmul float 2.000000e+00, %138
  %140 = load float, ptr %12, align 4
  %141 = fmul float %139, %140
  %142 = call float @llvm.fmuladd.f32(float %136, float %137, float %141)
  %143 = load float, ptr %14, align 4
  %144 = fmul float %142, %143
  %145 = load ptr, ptr %5, align 8
  %146 = getelementptr inbounds float, ptr %145, i64 6
  store float %144, ptr %146, align 4
  %147 = load ptr, ptr %5, align 8
  %148 = getelementptr inbounds float, ptr %147, i64 7
  store float 0.000000e+00, ptr %148, align 4
  %149 = load float, ptr %9, align 4
  %150 = fmul float 2.000000e+00, %149
  %151 = load float, ptr %11, align 4
  %152 = load float, ptr %10, align 4
  %153 = fmul float 2.000000e+00, %152
  %154 = load float, ptr %12, align 4
  %155 = fmul float %153, %154
  %156 = call float @llvm.fmuladd.f32(float %150, float %151, float %155)
  %157 = load float, ptr %15, align 4
  %158 = fmul float %156, %157
  %159 = load ptr, ptr %5, align 8
  %160 = getelementptr inbounds float, ptr %159, i64 8
  store float %158, ptr %160, align 4
  %161 = load float, ptr %10, align 4
  %162 = fmul float 2.000000e+00, %161
  %163 = load float, ptr %11, align 4
  %164 = load float, ptr %9, align 4
  %165 = fmul float 2.000000e+00, %164
  %166 = load float, ptr %12, align 4
  %167 = fmul float %165, %166
  %168 = fneg float %167
  %169 = call float @llvm.fmuladd.f32(float %162, float %163, float %168)
  %170 = load float, ptr %15, align 4
  %171 = fmul float %169, %170
  %172 = load ptr, ptr %5, align 8
  %173 = getelementptr inbounds float, ptr %172, i64 9
  store float %171, ptr %173, align 4
  %174 = load float, ptr %9, align 4
  %175 = fmul float 2.000000e+00, %174
  %176 = load float, ptr %9, align 4
  %177 = fneg float %175
  %178 = call float @llvm.fmuladd.f32(float %177, float %176, float 1.000000e+00)
  %179 = load float, ptr %10, align 4
  %180 = fmul float 2.000000e+00, %179
  %181 = load float, ptr %10, align 4
  %182 = fneg float %180
  %183 = call float @llvm.fmuladd.f32(float %182, float %181, float %178)
  %184 = load float, ptr %15, align 4
  %185 = fmul float %183, %184
  %186 = load ptr, ptr %5, align 8
  %187 = getelementptr inbounds float, ptr %186, i64 10
  store float %185, ptr %187, align 4
  %188 = load ptr, ptr %5, align 8
  %189 = getelementptr inbounds float, ptr %188, i64 11
  store float 0.000000e+00, ptr %189, align 4
  %190 = load float, ptr %6, align 4
  %191 = load ptr, ptr %5, align 8
  %192 = getelementptr inbounds float, ptr %191, i64 12
  store float %190, ptr %192, align 4
  %193 = load float, ptr %7, align 4
  %194 = load ptr, ptr %5, align 8
  %195 = getelementptr inbounds float, ptr %194, i64 13
  store float %193, ptr %195, align 4
  %196 = load float, ptr %8, align 4
  %197 = load ptr, ptr %5, align 8
  %198 = getelementptr inbounds float, ptr %197, i64 14
  store float %196, ptr %198, align 4
  %199 = load ptr, ptr %5, align 8
  %200 = getelementptr inbounds float, ptr %199, i64 15
  store float 1.000000e+00, ptr %200, align 4
  call void @llvm.lifetime.end.p0(i64 4, ptr %15) #16
  call void @llvm.lifetime.end.p0(i64 4, ptr %14) #16
  call void @llvm.lifetime.end.p0(i64 4, ptr %13) #16
  call void @llvm.lifetime.end.p0(i64 4, ptr %12) #16
  call void @llvm.lifetime.end.p0(i64 4, ptr %11) #16
  call void @llvm.lifetime.end.p0(i64 4, ptr %10) #16
  call void @llvm.lifetime.end.p0(i64 4, ptr %9) #16
  call void @llvm.lifetime.end.p0(i64 4, ptr %8) #16
  call void @llvm.lifetime.end.p0(i64 4, ptr %7) #16
  call void @llvm.lifetime.end.p0(i64 4, ptr %6) #16
  br label %201

201:                                              ; preds = %26, %21
  call void @llvm.lifetime.end.p0(i64 8, ptr %5) #16
  ret void
}