; Function Attrs: mustprogress nofree norecurse nosync nounwind willreturn memory(argmem: readwrite) uwtable
define hidden void @cgltf_node_transform_local(ptr noundef readonly captures(none) %0, ptr noundef writeonly captures(none) initializes((0, 64)) %1) local_unnamed_addr #19 {
  %3 = getelementptr inbounds nuw i8, ptr %0, i64 92
  %4 = load i32, ptr %3, align 4
  %.not = icmp eq i32 %4, 0
  br i1 %.not, label %7, label %5

5:                                                ; preds = %2
  %6 = getelementptr inbounds nuw i8, ptr %0, i64 136
  tail call void @llvm.memcpy.p0.p0.i64(ptr noundef nonnull align 4 dereferenceable(64) %1, ptr noundef nonnull align 8 dereferenceable(64) %6, i64 64, i1 false)
  br label %75

7:                                                ; preds = %2
  %8 = getelementptr inbounds nuw i8, ptr %0, i64 96
  %9 = load float, ptr %8, align 8
  %10 = getelementptr inbounds nuw i8, ptr %0, i64 100
  %11 = load float, ptr %10, align 4
  %12 = getelementptr inbounds nuw i8, ptr %0, i64 104
  %13 = load float, ptr %12, align 8
  %14 = getelementptr inbounds nuw i8, ptr %0, i64 108
  %15 = load float, ptr %14, align 4
  %16 = getelementptr inbounds nuw i8, ptr %0, i64 112
  %17 = load float, ptr %16, align 4
  %18 = getelementptr inbounds nuw i8, ptr %0, i64 116
  %19 = load float, ptr %18, align 4
  %20 = getelementptr inbounds nuw i8, ptr %0, i64 120
  %21 = load float, ptr %20, align 4
  %22 = getelementptr inbounds nuw i8, ptr %0, i64 124
  %23 = load float, ptr %22, align 4
  %24 = getelementptr inbounds nuw i8, ptr %0, i64 128
  %25 = load float, ptr %24, align 4
  %26 = getelementptr inbounds nuw i8, ptr %0, i64 132
  %27 = load float, ptr %26, align 4
  %28 = fmul float %17, 2.000000e+00
  %29 = fneg float %28
  %30 = tail call float @llvm.fmuladd.f32(float %29, float %17, float 1.000000e+00)
  %31 = fmul float %19, 2.000000e+00
  %32 = fneg float %31
  %33 = tail call float @llvm.fmuladd.f32(float %32, float %19, float %30)
  %34 = fmul float %33, %23
  store float %34, ptr %1, align 4
  %35 = fmul float %15, 2.000000e+00
  %36 = fmul float %31, %21
  %37 = tail call float @llvm.fmuladd.f32(float %35, float %17, float %36)
  %38 = fmul float %23, %37
  %39 = getelementptr inbounds nuw i8, ptr %1, i64 4
  store float %38, ptr %39, align 4
  %40 = fmul float %28, %21
  %41 = fneg float %40
  %42 = tail call float @llvm.fmuladd.f32(float %35, float %19, float %41)
  %43 = fmul float %23, %42
  %44 = getelementptr inbounds nuw i8, ptr %1, i64 8
  store float %43, ptr %44, align 4
  %45 = getelementptr inbounds nuw i8, ptr %1, i64 12
  store float 0.000000e+00, ptr %45, align 4
  %46 = fneg float %36
  %47 = tail call float @llvm.fmuladd.f32(float %35, float %17, float %46)
  %48 = fmul float %47, %25
  %49 = getelementptr inbounds nuw i8, ptr %1, i64 16
  store float %48, ptr %49, align 4
  %50 = fneg float %35
  %51 = tail call float @llvm.fmuladd.f32(float %50, float %15, float 1.000000e+00)
  %52 = tail call float @llvm.fmuladd.f32(float %32, float %19, float %51)
  %53 = fmul float %52, %25
  %54 = getelementptr inbounds nuw i8, ptr %1, i64 20
  store float %53, ptr %54, align 4
  %55 = fmul float %35, %21
  %56 = tail call float @llvm.fmuladd.f32(float %28, float %19, float %55)
  %57 = fmul float %56, %25
  %58 = getelementptr inbounds nuw i8, ptr %1, i64 24
  store float %57, ptr %58, align 4
  %59 = getelementptr inbounds nuw i8, ptr %1, i64 28
  store float 0.000000e+00, ptr %59, align 4
  %60 = tail call float @llvm.fmuladd.f32(float %35, float %19, float %40)
  %61 = fmul float %60, %27
  %62 = getelementptr inbounds nuw i8, ptr %1, i64 32
  store float %61, ptr %62, align 4
  %63 = fneg float %55
  %64 = tail call float @llvm.fmuladd.f32(float %28, float %19, float %63)
  %65 = fmul float %64, %27
  %66 = getelementptr inbounds nuw i8, ptr %1, i64 36
  store float %65, ptr %66, align 4
  %67 = tail call float @llvm.fmuladd.f32(float %29, float %17, float %51)
  %68 = fmul float %67, %27
  %69 = getelementptr inbounds nuw i8, ptr %1, i64 40
  store float %68, ptr %69, align 4
  %70 = getelementptr inbounds nuw i8, ptr %1, i64 44
  store float 0.000000e+00, ptr %70, align 4
  %71 = getelementptr inbounds nuw i8, ptr %1, i64 48
  store float %9, ptr %71, align 4
  %72 = getelementptr inbounds nuw i8, ptr %1, i64 52
  store float %11, ptr %72, align 4
  %73 = getelementptr inbounds nuw i8, ptr %1, i64 56
  store float %13, ptr %73, align 4
  %74 = getelementptr inbounds nuw i8, ptr %1, i64 60
  store float 1.000000e+00, ptr %74, align 4
  br label %75

75:                                               ; preds = %7, %5
  ret void
}